; Function Attrs: mustprogress uwtable
define hidden noundef i32 @_ZN6google8protobuf8compiler6csharp16MessageGenerator16GetPresenceIndexEPKNS0_15FieldDescriptorE(ptr nocapture noundef nonnull readonly align 8 dereferenceable(57) %this, ptr noundef %descriptor) local_unnamed_addr #4 align 2 {
entry:
  %call = tail call noundef zeroext i1 @_ZN6google8protobuf8compiler6csharp19RequiresPresenceBitEPKNS0_15FieldDescriptorE(ptr noundef %descriptor)
  br i1 %call, label %for.cond.preheader, label %return

for.cond.preheader:                               ; preds = %entry
  %fields_by_number_.i = getelementptr inbounds i8, ptr %this, i64 24
  %_M_finish.i = getelementptr inbounds i8, ptr %this, i64 32
  %0 = load ptr, ptr %_M_finish.i, align 8
  %1 = load ptr, ptr %fields_by_number_.i, align 8
  %cmp11.not = icmp eq ptr %0, %1
  br i1 %cmp11.not, label %return, label %for.body

for.body:                                         ; preds = %for.cond.preheader, %if.end9
  %indvars.iv = phi i64 [ %indvars.iv.next, %if.end9 ], [ 0, %for.cond.preheader ]
  %2 = phi ptr [ %5, %if.end9 ], [ %1, %for.cond.preheader ]
  %index.012 = phi i32 [ %spec.select, %if.end9 ], [ 0, %for.cond.preheader ]
  %add.ptr.i = getelementptr inbounds ptr, ptr %2, i64 %indvars.iv
  %3 = load ptr, ptr %add.ptr.i, align 8
  %cmp7 = icmp eq ptr %3, %descriptor
  br i1 %cmp7, label %return, label %if.end9

if.end9:                                          ; preds = %for.body
  %call10 = tail call noundef zeroext i1 @_ZN6google8protobuf8compiler6csharp19RequiresPresenceBitEPKNS0_15FieldDescriptorE(ptr noundef %3)
  %inc = zext i1 %call10 to i32
  %spec.select = add nuw nsw i32 %index.012, %inc
  %indvars.iv.next = add nuw nsw i64 %indvars.iv, 1
  %4 = load ptr, ptr %_M_finish.i, align 8
  %5 = load ptr, ptr %fields_by_number_.i, align 8
  %sub.ptr.lhs.cast.i = ptrtoint ptr %4 to i64
  %sub.ptr.rhs.cast.i = ptrtoint ptr %5 to i64
  %sub.ptr.sub.i = sub i64 %sub.ptr.lhs.cast.i, %sub.ptr.rhs.cast.i
  %sub.ptr.div.i = ashr exact i64 %sub.ptr.sub.i, 3
  %cmp = icmp ugt i64 %sub.ptr.div.i, %indvars.iv.next
  br i1 %cmp, label %for.body, label %return, !llvm.loop !32

return:                                           ; preds = %for.body, %if.end9, %for.cond.preheader, %entry
  %retval.0 = phi i32 [ -1, %entry ], [ -1, %for.cond.preheader ], [ %index.012, %for.body ], [ -1, %if.end9 ]
  ret i32 %retval.0
}